(((S'x'
p0
I100
(S'width'
p1
I80
(S'height'
p2
I68
(t(ttp3
(ttp4
(S'y'
p5
I88
(t(ttp6
tp7
(I33
((cxerblin
handle_sequence
p8
(cxerblin
enstacken
p9
I23
tp10
cxerblin
mul
p11
tp12
(I18
(I23
(ttp13
tp14
tp15
tp16
tp17
(S'listwords'
p18
cxerblin
listwords
p19
(S'by23'
p20
g12
(S'NewLoopWord'
p21
cxerblin
NewLoopWord
p22
(S'NewEnstackener'
p23
cxerblin
NewEnstackener
p24
(S'NewBranchWord'
p25
cxerblin
NewBranchWord
p26
(t(ttp27
(ttp28
(S'add'
p29
cxerblin
add
p30
(S'NewSeqWord'
p31
cxerblin
NewSeqWord
p32
(t(ttp33
(ttp34
tp35
(S'dup'
p36
cxerblin
dup
p37
(S'drop'
p38
cxerblin
drop
p39
(S'dictionary_insert'
p40
cxerblin
dictionary_insert
p41
(t(ttp42
(ttp43
(S'inscribe'
p44
cxerblin
inscribe
p45
(t(ttp46
tp47
tp48
(S'rebalance'
p49
cxerblin
rebalance
p50
(S'new_thing'
p51
cxerblin
new_thing
p52
(S'mul'
p53
g11
(S'lookup'
p54
cxerblin
lookup
p55
(t(ttp56
(ttp57
(S'pick'
p58
cxerblin
pick
p59
(S'over'
p60
cxerblin
over
p61
(t(ttp62
(ttp63
tp64
(S'tuck'
p65
cxerblin
tuck
p66
(S'swap'
p67
cxerblin
swap
p68
(S'sub'
p69
cxerblin
sub
p70
(S'rectangle'
p71
g7
(t(ttp72
(ttp73
(ttp74
(S'view'
p75
cxerblin
view
p76
(t(ttp77
tp78
tp79
tp80
tp81
.