(((cxerblin
handle_sequence
p0
tp1
(ttp2
(S'listwords'
p3
cxerblin
listwords
p4
(S'by23'
p5
(g0
(cxerblin
enstacken
p6
I23
tp7
cxerblin
mul
p8
tp9
(S'NewLoopWord'
p10
cxerblin
NewLoopWord
p11
(S'NewEnstackener'
p12
cxerblin
NewEnstackener
p13
(S'NewBranchWord'
p14
cxerblin
NewBranchWord
p15
(t(ttp16
(ttp17
(S'add'
p18
cxerblin
add
p19
(S'NewSeqWord'
p20
cxerblin
NewSeqWord
p21
(t(ttp22
(ttp23
tp24
(S'dup'
p25
cxerblin
dup
p26
(S'drop'
p27
cxerblin
drop
p28
(S'dictionary_insert'
p29
cxerblin
dictionary_insert
p30
(t(ttp31
(ttp32
(S'inscribe'
p33
cxerblin
inscribe
p34
(t(ttp35
tp36
tp37
(S'rebalance'
p38
cxerblin
rebalance
p39
(S'new_thing'
p40
cxerblin
new_thing
p41
(S'mul'
p42
g8
(S'lookup'
p43
cxerblin
lookup
p44
(t(ttp45
(ttp46
(S'pick'
p47
cxerblin
pick
p48
(S'over'
p49
cxerblin
over
p50
(t(ttp51
(ttp52
tp53
(S'tuck'
p54
cxerblin
tuck
p55
(S'swap'
p56
cxerblin
swap
p57
(S'sub'
p58
cxerblin
sub
p59
(t(ttp60
(ttp61
(S'view'
p62
cxerblin
view
p63
(t(ttp64
tp65
tp66
tp67
tp68
.