(((S'x'
p0
I100
(t(S'y'
p1
I88
(t(ttp2
tp3
(I33
((cxerblin
handle_sequence
p4
(cxerblin
enstacken
p5
I23
tp6
cxerblin
mul
p7
tp8
(I18
(I23
(ttp9
tp10
tp11
tp12
tp13
(S'listwords'
p14
cxerblin
listwords
p15
(S'by23'
p16
g8
(S'NewLoopWord'
p17
cxerblin
NewLoopWord
p18
(S'NewEnstackener'
p19
cxerblin
NewEnstackener
p20
(S'NewBranchWord'
p21
cxerblin
NewBranchWord
p22
(t(ttp23
(ttp24
(S'add'
p25
cxerblin
add
p26
(S'NewSeqWord'
p27
cxerblin
NewSeqWord
p28
(t(ttp29
(ttp30
tp31
(S'dup'
p32
cxerblin
dup
p33
(S'drop'
p34
cxerblin
drop
p35
(S'dictionary_insert'
p36
cxerblin
dictionary_insert
p37
(t(ttp38
(ttp39
(S'inscribe'
p40
cxerblin
inscribe
p41
(t(ttp42
tp43
tp44
(S'rebalance'
p45
cxerblin
rebalance
p46
(S'new_thing'
p47
cxerblin
new_thing
p48
(S'mul'
p49
g7
(S'lookup'
p50
cxerblin
lookup
p51
(t(ttp52
(ttp53
(S'pick'
p54
cxerblin
pick
p55
(S'over'
p56
cxerblin
over
p57
(t(ttp58
(ttp59
tp60
(S'tuck'
p61
cxerblin
tuck
p62
(S'swap'
p63
cxerblin
swap
p64
(S'sub'
p65
cxerblin
sub
p66
(t(ttp67
(ttp68
(S'view'
p69
cxerblin
view
p70
(t(ttp71
tp72
tp73
tp74
tp75
.